target datalayout = "e-m:e-p270:32:32-p271:32:32-p272:64:64-i64:64-i128:128-f80:128-n8:16:32:64-S128"
target triple = "x86_64-pc-linux-gnu"

%struct.ggml_backend_buffer_i = type { ptr, ptr, ptr, ptr, ptr, ptr, ptr, ptr, ptr }
%struct.ggml_backend_buffer_type = type { %struct.ggml_backend_buffer_type_i, ptr, ptr }
%struct.ggml_backend_buffer_type_i = type { ptr, ptr, ptr, ptr, ptr, ptr }
%struct.ggml_backend_buffer = type { %struct.ggml_backend_buffer_i, ptr, ptr, i64, i32 }
%struct.ggml_tensor = type { i32, ptr, [4 x i64], [4 x i64], i32, [16 x i32], i32, [10 x ptr], ptr, i64, ptr, [64 x i8], ptr, [8 x i8] }

@.str = private unnamed_addr constant [123 x i8] c"generated/home/dtcxzyw/WorkSpace/Projects/compilers/llvm-opt-benchmark/bench/llama.cpp/llama.cpp/ggml/src/ggml-backend.cpp\00", align 1
@.str.1 = private unnamed_addr constant [23 x i8] c"GGML_ASSERT(%s) failed\00", align 1
@.str.13 = private unnamed_addr constant [79 x i8] c"ggml_are_same_layout(src, dst) && \22cannot copy tensors with different layouts\22\00", align 1

; Function Attrs: mustprogress uwtable
define zeroext i1 @ggml_backend_buft_is_host(ptr noundef %0) #0 {
  %2 = alloca i1, align 1
  %3 = alloca ptr, align 8
  store ptr %0, ptr %3, align 8, !tbaa !3
  %4 = load ptr, ptr %3, align 8, !tbaa !3
  %5 = getelementptr inbounds nuw %struct.ggml_backend_buffer_type, ptr %4, i32 0, i32 0
  %6 = getelementptr inbounds nuw %struct.ggml_backend_buffer_type_i, ptr %5, i32 0, i32 5
  %7 = load ptr, ptr %6, align 8, !tbaa !31
  %8 = icmp ne ptr %7, null
  br i1 %8, label %9, label %16

9:                                                ; preds = %1
  %10 = load ptr, ptr %3, align 8, !tbaa !3
  %11 = getelementptr inbounds nuw %struct.ggml_backend_buffer_type, ptr %10, i32 0, i32 0
  %12 = getelementptr inbounds nuw %struct.ggml_backend_buffer_type_i, ptr %11, i32 0, i32 5
  %13 = load ptr, ptr %12, align 8, !tbaa !31
  %14 = load ptr, ptr %3, align 8, !tbaa !3
  %15 = call noundef zeroext i1 %13(ptr noundef %14)
  store i1 %15, ptr %2, align 1
  br label %17

16:                                               ; preds = %1
  store i1 false, ptr %2, align 1
  br label %17

17:                                               ; preds = %16, %9
  %18 = load i1, ptr %2, align 1
  ret i1 %18
}

; Function Attrs: mustprogress nounwind uwtable
define ptr @ggml_backend_buffer_get_type(ptr noundef %0) #4 {
  %2 = alloca ptr, align 8
  store ptr %0, ptr %2, align 8, !tbaa !24
  %3 = load ptr, ptr %2, align 8, !tbaa !24
  %4 = getelementptr inbounds nuw %struct.ggml_backend_buffer, ptr %3, i32 0, i32 1
  %5 = load ptr, ptr %4, align 8, !tbaa !17
  ret ptr %5
}

; Function Attrs: mustprogress uwtable
define zeroext i1 @ggml_backend_buffer_copy_tensor(ptr noundef %0, ptr noundef %1) #0 {
  %3 = alloca i1, align 1
  %4 = alloca ptr, align 8
  %5 = alloca ptr, align 8
  %6 = alloca ptr, align 8
  %7 = alloca i32, align 4
  store ptr %0, ptr %4, align 8, !tbaa !28
  store ptr %1, ptr %5, align 8, !tbaa !28
  call void @llvm.lifetime.start.p0(i64 8, ptr %6) #15
  %8 = load ptr, ptr %5, align 8, !tbaa !28
  %9 = getelementptr inbounds nuw %struct.ggml_tensor, ptr %8, i32 0, i32 8
  %10 = load ptr, ptr %9, align 8, !tbaa !49
  %11 = icmp ne ptr %10, null
  br i1 %11, label %12, label %18

12:                                               ; preds = %2
  %13 = load ptr, ptr %5, align 8, !tbaa !28
  %14 = getelementptr inbounds nuw %struct.ggml_tensor, ptr %13, i32 0, i32 8
  %15 = load ptr, ptr %14, align 8, !tbaa !49
  %16 = getelementptr inbounds nuw %struct.ggml_tensor, ptr %15, i32 0, i32 1
  %17 = load ptr, ptr %16, align 8, !tbaa !54
  br label %22

18:                                               ; preds = %2
  %19 = load ptr, ptr %5, align 8, !tbaa !28
  %20 = getelementptr inbounds nuw %struct.ggml_tensor, ptr %19, i32 0, i32 1
  %21 = load ptr, ptr %20, align 8, !tbaa !54
  br label %22

22:                                               ; preds = %18, %12
  %23 = phi ptr [ %17, %12 ], [ %21, %18 ]
  store ptr %23, ptr %6, align 8, !tbaa !24
  %24 = load ptr, ptr %6, align 8, !tbaa !24
  %25 = getelementptr inbounds nuw %struct.ggml_backend_buffer, ptr %24, i32 0, i32 0
  %26 = getelementptr inbounds nuw %struct.ggml_backend_buffer_i, ptr %25, i32 0, i32 6
  %27 = load ptr, ptr %26, align 8, !tbaa !55
  %28 = icmp ne ptr %27, null
  br i1 %28, label %29, label %38

29:                                               ; preds = %22
  %30 = load ptr, ptr %6, align 8, !tbaa !24
  %31 = getelementptr inbounds nuw %struct.ggml_backend_buffer, ptr %30, i32 0, i32 0
  %32 = getelementptr inbounds nuw %struct.ggml_backend_buffer_i, ptr %31, i32 0, i32 6
  %33 = load ptr, ptr %32, align 8, !tbaa !55
  %34 = load ptr, ptr %6, align 8, !tbaa !24
  %35 = load ptr, ptr %4, align 8, !tbaa !28
  %36 = load ptr, ptr %5, align 8, !tbaa !28
  %37 = call noundef zeroext i1 %33(ptr noundef %34, ptr noundef %35, ptr noundef %36)
  store i1 %37, ptr %3, align 1
  store i32 1, ptr %7, align 4
  br label %39

38:                                               ; preds = %22
  store i1 false, ptr %3, align 1
  store i32 1, ptr %7, align 4
  br label %39

39:                                               ; preds = %38, %29
  call void @llvm.lifetime.end.p0(i64 8, ptr %6) #15
  %40 = load i1, ptr %3, align 1
  ret i1 %40
}

; Function Attrs: mustprogress uwtable
define zeroext i1 @ggml_backend_buffer_is_host(ptr noundef %0) #0 {
  %2 = alloca ptr, align 8
  store ptr %0, ptr %2, align 8, !tbaa !24
  %3 = load ptr, ptr %2, align 8, !tbaa !24
  %4 = call ptr @ggml_backend_buffer_get_type(ptr noundef %3)
  %5 = call zeroext i1 @ggml_backend_buft_is_host(ptr noundef %4)
  ret i1 %5
}

; Function Attrs: mustprogress nounwind uwtable
define internal noundef zeroext i1 @_ZL20ggml_are_same_layoutPK11ggml_tensorS1_(ptr noundef %0, ptr noundef %1) #4 {
  %3 = alloca i1, align 1
  %4 = alloca ptr, align 8
  %5 = alloca ptr, align 8
  %6 = alloca i32, align 4
  %7 = alloca i32, align 4
  store ptr %0, ptr %4, align 8, !tbaa !28
  store ptr %1, ptr %5, align 8, !tbaa !28
  %8 = load ptr, ptr %4, align 8, !tbaa !28
  %9 = getelementptr inbounds nuw %struct.ggml_tensor, ptr %8, i32 0, i32 0
  %10 = load i32, ptr %9, align 8, !tbaa !88
  %11 = load ptr, ptr %5, align 8, !tbaa !28
  %12 = getelementptr inbounds nuw %struct.ggml_tensor, ptr %11, i32 0, i32 0
  %13 = load i32, ptr %12, align 8, !tbaa !88
  %14 = icmp ne i32 %10, %13
  br i1 %14, label %15, label %16

15:                                               ; preds = %2
  store i1 false, ptr %3, align 1
  br label %58

16:                                               ; preds = %2
  call void @llvm.lifetime.start.p0(i64 4, ptr %6) #15
  store i32 0, ptr %6, align 4, !tbaa !89
  br label %17

17:                                               ; preds = %52, %16
  %18 = load i32, ptr %6, align 4, !tbaa !89
  %19 = icmp slt i32 %18, 4
  br i1 %19, label %21, label %20

20:                                               ; preds = %17
  store i32 2, ptr %7, align 4
  br label %55

21:                                               ; preds = %17
  %22 = load ptr, ptr %4, align 8, !tbaa !28
  %23 = getelementptr inbounds nuw %struct.ggml_tensor, ptr %22, i32 0, i32 2
  %24 = load i32, ptr %6, align 4, !tbaa !89
  %25 = sext i32 %24 to i64
  %26 = getelementptr inbounds [4 x i64], ptr %23, i64 0, i64 %25
  %27 = load i64, ptr %26, align 8, !tbaa !12
  %28 = load ptr, ptr %5, align 8, !tbaa !28
  %29 = getelementptr inbounds nuw %struct.ggml_tensor, ptr %28, i32 0, i32 2
  %30 = load i32, ptr %6, align 4, !tbaa !89
  %31 = sext i32 %30 to i64
  %32 = getelementptr inbounds [4 x i64], ptr %29, i64 0, i64 %31
  %33 = load i64, ptr %32, align 8, !tbaa !12
  %34 = icmp ne i64 %27, %33
  br i1 %34, label %35, label %36

35:                                               ; preds = %21
  store i1 false, ptr %3, align 1
  store i32 1, ptr %7, align 4
  br label %55

36:                                               ; preds = %21
  %37 = load ptr, ptr %4, align 8, !tbaa !28
  %38 = getelementptr inbounds nuw %struct.ggml_tensor, ptr %37, i32 0, i32 3
  %39 = load i32, ptr %6, align 4, !tbaa !89
  %40 = sext i32 %39 to i64
  %41 = getelementptr inbounds [4 x i64], ptr %38, i64 0, i64 %40
  %42 = load i64, ptr %41, align 8, !tbaa !12
  %43 = load ptr, ptr %5, align 8, !tbaa !28
  %44 = getelementptr inbounds nuw %struct.ggml_tensor, ptr %43, i32 0, i32 3
  %45 = load i32, ptr %6, align 4, !tbaa !89
  %46 = sext i32 %45 to i64
  %47 = getelementptr inbounds [4 x i64], ptr %44, i64 0, i64 %46
  %48 = load i64, ptr %47, align 8, !tbaa !12
  %49 = icmp ne i64 %42, %48
  br i1 %49, label %50, label %51

50:                                               ; preds = %36
  store i1 false, ptr %3, align 1
  store i32 1, ptr %7, align 4
  br label %55

51:                                               ; preds = %36
  br label %52

52:                                               ; preds = %51
  %53 = load i32, ptr %6, align 4, !tbaa !89
  %54 = add nsw i32 %53, 1
  store i32 %54, ptr %6, align 4, !tbaa !89
  br label %17, !llvm.loop !90

55:                                               ; preds = %50, %35, %20
  call void @llvm.lifetime.end.p0(i64 4, ptr %6) #15
  %56 = load i32, ptr %7, align 4
  switch i32 %56, label %60 [
    i32 2, label %57
    i32 1, label %58
  ]

57:                                               ; preds = %55
  store i1 true, ptr %3, align 1
  br label %58

58:                                               ; preds = %57, %55, %15
  %59 = load i1, ptr %3, align 1
  ret i1 %59

60:                                               ; preds = %55
  unreachable
}

; Function Attrs: mustprogress uwtable
define void @ggml_backend_tensor_copy(ptr noundef %0, ptr noundef %1) #0 {
  %3 = alloca ptr, align 8
  %4 = alloca ptr, align 8
  %5 = alloca i64, align 8
  %6 = alloca ptr, align 8
  store ptr %0, ptr %3, align 8, !tbaa !28
  store ptr %1, ptr %4, align 8, !tbaa !28
  %7 = load ptr, ptr %3, align 8, !tbaa !28
  %8 = load ptr, ptr %4, align 8, !tbaa !28
  %9 = call noundef zeroext i1 @_ZL20ggml_are_same_layoutPK11ggml_tensorS1_(ptr noundef %7, ptr noundef %8)
  br i1 %9, label %11, label %10

10:                                               ; preds = %2
  call void (ptr, i32, ptr, ...) @ggml_abort(ptr noundef @.str, i32 noundef 369, ptr noundef @.str.1, ptr noundef @.str.13) #18
  unreachable

11:                                               ; preds = %2
  %12 = load ptr, ptr %3, align 8, !tbaa !28
  %13 = load ptr, ptr %4, align 8, !tbaa !28
  %14 = icmp eq ptr %12, %13
  br i1 %14, label %15, label %16

15:                                               ; preds = %11
  br label %58

16:                                               ; preds = %11
  %17 = load ptr, ptr %3, align 8, !tbaa !28
  %18 = getelementptr inbounds nuw %struct.ggml_tensor, ptr %17, i32 0, i32 1
  %19 = load ptr, ptr %18, align 8, !tbaa !54
  %20 = call zeroext i1 @ggml_backend_buffer_is_host(ptr noundef %19)
  br i1 %20, label %21, label %28

21:                                               ; preds = %16
  %22 = load ptr, ptr %4, align 8, !tbaa !28
  %23 = load ptr, ptr %3, align 8, !tbaa !28
  %24 = getelementptr inbounds nuw %struct.ggml_tensor, ptr %23, i32 0, i32 10
  %25 = load ptr, ptr %24, align 8, !tbaa !70
  %26 = load ptr, ptr %3, align 8, !tbaa !28
  %27 = call i64 @ggml_nbytes(ptr noundef %26)
  call void @ggml_backend_tensor_set(ptr noundef %22, ptr noundef %25, i64 noundef 0, i64 noundef %27)
  br label %58

28:                                               ; preds = %16
  %29 = load ptr, ptr %4, align 8, !tbaa !28
  %30 = getelementptr inbounds nuw %struct.ggml_tensor, ptr %29, i32 0, i32 1
  %31 = load ptr, ptr %30, align 8, !tbaa !54
  %32 = call zeroext i1 @ggml_backend_buffer_is_host(ptr noundef %31)
  br i1 %32, label %33, label %40

33:                                               ; preds = %28
  %34 = load ptr, ptr %3, align 8, !tbaa !28
  %35 = load ptr, ptr %4, align 8, !tbaa !28
  %36 = getelementptr inbounds nuw %struct.ggml_tensor, ptr %35, i32 0, i32 10
  %37 = load ptr, ptr %36, align 8, !tbaa !70
  %38 = load ptr, ptr %3, align 8, !tbaa !28
  %39 = call i64 @ggml_nbytes(ptr noundef %38)
  call void @ggml_backend_tensor_get(ptr noundef %34, ptr noundef %37, i64 noundef 0, i64 noundef %39)
  br label %57

40:                                               ; preds = %28
  %41 = load ptr, ptr %3, align 8, !tbaa !28
  %42 = load ptr, ptr %4, align 8, !tbaa !28
  %43 = call zeroext i1 @ggml_backend_buffer_copy_tensor(ptr noundef %41, ptr noundef %42)
  br i1 %43, label %56, label %44

44:                                               ; preds = %40
  call void @llvm.lifetime.start.p0(i64 8, ptr %5) #15
  %45 = load ptr, ptr %3, align 8, !tbaa !28
  %46 = call i64 @ggml_nbytes(ptr noundef %45)
  store i64 %46, ptr %5, align 8, !tbaa !12
  call void @llvm.lifetime.start.p0(i64 8, ptr %6) #15
  %47 = load i64, ptr %5, align 8, !tbaa !12
  %48 = call noalias ptr @malloc(i64 noundef %47) #19
  store ptr %48, ptr %6, align 8, !tbaa !15
  %49 = load ptr, ptr %3, align 8, !tbaa !28
  %50 = load ptr, ptr %6, align 8, !tbaa !15
  %51 = load i64, ptr %5, align 8, !tbaa !12
  call void @ggml_backend_tensor_get(ptr noundef %49, ptr noundef %50, i64 noundef 0, i64 noundef %51)
  %52 = load ptr, ptr %4, align 8, !tbaa !28
  %53 = load ptr, ptr %6, align 8, !tbaa !15
  %54 = load i64, ptr %5, align 8, !tbaa !12
  call void @ggml_backend_tensor_set(ptr noundef %52, ptr noundef %53, i64 noundef 0, i64 noundef %54)
  %55 = load ptr, ptr %6, align 8, !tbaa !15
  call void @free(ptr noundef %55) #15
  call void @llvm.lifetime.end.p0(i64 8, ptr %6) #15
  call void @llvm.lifetime.end.p0(i64 8, ptr %5) #15
  br label %56

56:                                               ; preds = %44, %40
  br label %57

57:                                               ; preds = %56, %33
  br label %58

58:                                               ; preds = %15, %57, %21
  ret void
}