; Function Attrs: mustprogress uwtable
define void @ggml_backend_tensor_copy(ptr noundef %0, ptr noundef %1) local_unnamed_addr #0 {
  %3 = load i32, ptr %0, align 8, !tbaa !74
  %4 = load i32, ptr %1, align 8, !tbaa !74
  %.not.i = icmp eq i32 %3, %4
  br i1 %.not.i, label %.preheader.i, label %.loopexit

.preheader.i:                                     ; preds = %2
  %5 = getelementptr inbounds nuw i8, ptr %0, i64 16
  %6 = getelementptr inbounds nuw i8, ptr %0, i64 48
  %7 = getelementptr inbounds nuw i8, ptr %1, i64 16
  %8 = getelementptr inbounds nuw i8, ptr %1, i64 48
  br label %10

9:                                                ; preds = %15
  %indvars.iv.next.i = add nuw nsw i64 %indvars.iv.i, 1
  %exitcond.i = icmp eq i64 %indvars.iv.next.i, 4
  br i1 %exitcond.i, label %_ZL20ggml_are_same_layoutPK11ggml_tensorS1_.exit, label %10, !llvm.loop !75

10:                                               ; preds = %9, %.preheader.i
  %indvars.iv.i = phi i64 [ 0, %.preheader.i ], [ %indvars.iv.next.i, %9 ]
  %11 = getelementptr inbounds nuw [4 x i64], ptr %5, i64 0, i64 %indvars.iv.i
  %12 = load i64, ptr %11, align 8, !tbaa !76
  %13 = getelementptr inbounds nuw [4 x i64], ptr %7, i64 0, i64 %indvars.iv.i
  %14 = load i64, ptr %13, align 8, !tbaa !76
  %.not15.i = icmp eq i64 %12, %14
  br i1 %.not15.i, label %15, label %.loopexit

15:                                               ; preds = %10
  %16 = getelementptr inbounds nuw [4 x i64], ptr %6, i64 0, i64 %indvars.iv.i
  %17 = load i64, ptr %16, align 8, !tbaa !76
  %18 = getelementptr inbounds nuw [4 x i64], ptr %8, i64 0, i64 %indvars.iv.i
  %19 = load i64, ptr %18, align 8, !tbaa !76
  %.not16.i = icmp eq i64 %17, %19
  br i1 %.not16.i, label %9, label %.loopexit

.loopexit:                                        ; preds = %10, %15, %2
  tail call void (ptr, i32, ptr, ...) @ggml_abort(ptr noundef nonnull @.str, i32 noundef 369, ptr noundef nonnull @.str.1, ptr noundef nonnull @.str.13) #24
  unreachable

_ZL20ggml_are_same_layoutPK11ggml_tensorS1_.exit: ; preds = %9
  %20 = icmp eq ptr %0, %1
  br i1 %20, label %52, label %21

21:                                               ; preds = %_ZL20ggml_are_same_layoutPK11ggml_tensorS1_.exit
  %22 = getelementptr inbounds nuw i8, ptr %0, i64 8
  %23 = load ptr, ptr %22, align 8, !tbaa !47
  %24 = getelementptr inbounds nuw i8, ptr %23, i64 72
  %25 = load ptr, ptr %24, align 8, !tbaa !10
  %26 = getelementptr inbounds nuw i8, ptr %25, i64 40
  %27 = load ptr, ptr %26, align 8, !tbaa !25
  %.not.i.i = icmp eq ptr %27, null
  br i1 %.not.i.i, label %ggml_backend_buffer_is_host.exit.thread, label %ggml_backend_buffer_is_host.exit

ggml_backend_buffer_is_host.exit:                 ; preds = %21
  %28 = tail call noundef zeroext i1 %27(ptr noundef nonnull %25)
  br i1 %28, label %29, label %ggml_backend_buffer_is_host.exit.thread

29:                                               ; preds = %ggml_backend_buffer_is_host.exit
  %30 = getelementptr inbounds nuw i8, ptr %0, i64 248
  %31 = load ptr, ptr %30, align 8, !tbaa !60
  %32 = tail call i64 @ggml_nbytes(ptr noundef nonnull %0)
  tail call void @ggml_backend_tensor_set(ptr noundef nonnull %1, ptr noundef %31, i64 noundef 0, i64 noundef %32)
  br label %52

ggml_backend_buffer_is_host.exit.thread:          ; preds = %21, %ggml_backend_buffer_is_host.exit
  %33 = getelementptr inbounds nuw i8, ptr %1, i64 8
  %34 = load ptr, ptr %33, align 8, !tbaa !47
  %35 = getelementptr inbounds nuw i8, ptr %34, i64 72
  %36 = load ptr, ptr %35, align 8, !tbaa !10
  %37 = getelementptr inbounds nuw i8, ptr %36, i64 40
  %38 = load ptr, ptr %37, align 8, !tbaa !25
  %.not.i.i23 = icmp eq ptr %38, null
  br i1 %.not.i.i23, label %ggml_backend_buffer_is_host.exit25.thread, label %ggml_backend_buffer_is_host.exit25

ggml_backend_buffer_is_host.exit25:               ; preds = %ggml_backend_buffer_is_host.exit.thread
  %39 = tail call noundef zeroext i1 %38(ptr noundef nonnull %36)
  br i1 %39, label %40, label %ggml_backend_buffer_is_host.exit25.thread

40:                                               ; preds = %ggml_backend_buffer_is_host.exit25
  %41 = getelementptr inbounds nuw i8, ptr %1, i64 248
  %42 = load ptr, ptr %41, align 8, !tbaa !60
  %43 = tail call i64 @ggml_nbytes(ptr noundef nonnull %0)
  tail call void @ggml_backend_tensor_get(ptr noundef nonnull %0, ptr noundef %42, i64 noundef 0, i64 noundef %43)
  br label %52

ggml_backend_buffer_is_host.exit25.thread:        ; preds = %ggml_backend_buffer_is_host.exit.thread, %ggml_backend_buffer_is_host.exit25
  %44 = getelementptr inbounds nuw i8, ptr %1, i64 232
  %45 = load ptr, ptr %44, align 8, !tbaa !41
  %.not.i26 = icmp eq ptr %45, null
  %..i = select i1 %.not.i26, ptr %1, ptr %45
  %.in.i = getelementptr inbounds nuw i8, ptr %..i, i64 8
  %46 = load ptr, ptr %.in.i, align 8, !tbaa !47
  %47 = getelementptr inbounds nuw i8, ptr %46, i64 48
  %48 = load ptr, ptr %47, align 8, !tbaa !48
  %.not11.i = icmp eq ptr %48, null
  br i1 %.not11.i, label %ggml_backend_buffer_copy_tensor.exit.thread, label %ggml_backend_buffer_copy_tensor.exit

ggml_backend_buffer_copy_tensor.exit:             ; preds = %ggml_backend_buffer_is_host.exit25.thread
  %49 = tail call noundef zeroext i1 %48(ptr noundef nonnull %46, ptr noundef nonnull %0, ptr noundef nonnull %1)
  br i1 %49, label %52, label %ggml_backend_buffer_copy_tensor.exit.thread

ggml_backend_buffer_copy_tensor.exit.thread:      ; preds = %ggml_backend_buffer_is_host.exit25.thread, %ggml_backend_buffer_copy_tensor.exit
  %50 = tail call i64 @ggml_nbytes(ptr noundef nonnull %0)
  %51 = tail call noalias ptr @malloc(i64 noundef %50) #25
  tail call void @ggml_backend_tensor_get(ptr noundef nonnull %0, ptr noundef %51, i64 noundef 0, i64 noundef %50)
  tail call void @ggml_backend_tensor_set(ptr noundef nonnull %1, ptr noundef %51, i64 noundef 0, i64 noundef %50)
  tail call void @free(ptr noundef %51) #26
  br label %52

52:                                               ; preds = %40, %ggml_backend_buffer_copy_tensor.exit.thread, %ggml_backend_buffer_copy_tensor.exit, %_ZL20ggml_are_same_layoutPK11ggml_tensorS1_.exit, %29
  ret void
}